target datalayout = "e-m:e-p270:32:32-p271:32:32-p272:64:64-i64:64-i128:128-f80:128-n8:16:32:64-S128"
target triple = "x86_64-pc-linux-gnu"

%struct.anon = type { i64, i64, i32, i32 }
%struct.RBasic = type { i64, i64 }
%struct.chdir_data = type { i64, i64, i32, i8 }
%struct.RString = type { %struct.RBasic, i64, %union.anon.16 }
%union.anon.16 = type { %struct.anon.17 }
%struct.anon.17 = type { ptr, %union.anon.18 }
%union.anon.18 = type { i64 }
%struct.anon.19 = type { [1 x i8] }

@chdir_lock = internal global %struct.anon { i64 4, i64 4, i32 0, i32 0 }, align 8
@__func__.dir_chdir0 = private unnamed_addr constant [11 x i8] c"dir_chdir0\00", align 1

; Function Attrs: inlinehint nounwind sspstrong willreturn memory(read) uwtable
define internal i64 @RB_FL_TEST_RAW(i64 noundef %0, i64 noundef %1) #19 {
  %3 = alloca i64, align 8
  %4 = alloca i64, align 8
  store i64 %0, ptr %3, align 8, !tbaa !7
  store i64 %1, ptr %4, align 8, !tbaa !7
  %5 = load i64, ptr %3, align 8, !tbaa !7
  %6 = inttoptr i64 %5 to ptr
  %7 = getelementptr inbounds nuw %struct.RBasic, ptr %6, i32 0, i32 0
  %8 = load i64, ptr %7, align 8, !tbaa !184
  %9 = load i64, ptr %4, align 8, !tbaa !7
  %10 = and i64 %8, %9
  ret i64 %10
}

; Function Attrs: inlinehint nounwind sspstrong willreturn memory(read) uwtable
define internal i64 @RSTRING_LEN(i64 noundef %0) #19 {
  %2 = alloca i64, align 8
  store i64 %0, ptr %2, align 8, !tbaa !7
  %3 = load i64, ptr %2, align 8, !tbaa !7
  %4 = inttoptr i64 %3 to ptr
  %5 = getelementptr inbounds nuw %struct.RString, ptr %4, i32 0, i32 1
  %6 = load i64, ptr %5, align 8, !tbaa !202
  ret i64 %6
}

; Function Attrs: inlinehint nounwind sspstrong willreturn memory(read) uwtable
define internal zeroext i1 @RB_FL_ANY_RAW(i64 noundef %0, i64 noundef %1) #19 {
  %3 = alloca i64, align 8
  %4 = alloca i64, align 8
  store i64 %0, ptr %3, align 8, !tbaa !7
  store i64 %1, ptr %4, align 8, !tbaa !7
  %5 = load i64, ptr %3, align 8, !tbaa !7
  %6 = load i64, ptr %4, align 8, !tbaa !7
  %7 = call i64 @RB_FL_TEST_RAW(i64 noundef %5, i64 noundef %6) #27
  %8 = icmp ne i64 %7, 0
  ret i1 %8
}

; Function Attrs: inlinehint nounwind sspstrong willreturn memory(read, argmem: readwrite) uwtable
define internal void @rbimpl_rstring_getmem(ptr dead_on_unwind noalias writable sret(%struct.RString) align 8 %0, i64 noundef %1) #24 {
  %3 = alloca i64, align 8
  store i64 %1, ptr %3, align 8, !tbaa !7
  %4 = load i64, ptr %3, align 8, !tbaa !7
  %5 = call zeroext i1 @RB_FL_ANY_RAW(i64 noundef %4, i64 noundef 8192) #27
  br i1 %5, label %6, label %9

6:                                                ; preds = %2
  %7 = load i64, ptr %3, align 8, !tbaa !7
  %8 = inttoptr i64 %7 to ptr
  call void @llvm.memcpy.p0.p0.i64(ptr align 8 %0, ptr align 8 %8, i64 40, i1 false), !tbaa.struct !201
  br label %20

9:                                                ; preds = %2
  %10 = load i64, ptr %3, align 8, !tbaa !7
  %11 = call i64 @RSTRING_LEN(i64 noundef %10) #27
  %12 = getelementptr inbounds nuw %struct.RString, ptr %0, i32 0, i32 1
  store i64 %11, ptr %12, align 8, !tbaa !202
  %13 = load i64, ptr %3, align 8, !tbaa !7
  %14 = inttoptr i64 %13 to ptr
  %15 = getelementptr inbounds nuw %struct.RString, ptr %14, i32 0, i32 2
  %16 = getelementptr inbounds nuw %struct.anon.19, ptr %15, i32 0, i32 0
  %17 = getelementptr inbounds [1 x i8], ptr %16, i64 0, i64 0
  %18 = getelementptr inbounds nuw %struct.RString, ptr %0, i32 0, i32 2
  %19 = getelementptr inbounds nuw %struct.anon.17, ptr %18, i32 0, i32 0
  store ptr %17, ptr %19, align 8, !tbaa !26
  br label %20

20:                                               ; preds = %9, %6
  ret void
}

; Function Attrs: inlinehint nounwind sspstrong willreturn memory(none) uwtable
define internal zeroext i1 @RB_NIL_P(i64 noundef %0) #12 {
  %2 = alloca i64, align 8
  store i64 %0, ptr %2, align 8, !tbaa !7
  %3 = load i64, ptr %2, align 8, !tbaa !7
  %4 = icmp eq i64 %3, 4
  ret i1 %4
}

; Function Attrs: inlinehint nounwind sspstrong uwtable
define internal ptr @RSTRING_PTR(i64 noundef %0) #2 {
  %2 = alloca i64, align 8
  %3 = alloca ptr, align 8
  %4 = alloca %struct.RString, align 8
  store i64 %0, ptr %2, align 8, !tbaa !7
  call void @llvm.lifetime.start.p0(i64 8, ptr %3) #26
  %5 = load i64, ptr %2, align 8, !tbaa !7
  call void @rbimpl_rstring_getmem(ptr dead_on_unwind writable sret(%struct.RString) align 8 %4, i64 noundef %5) #35
  %6 = getelementptr inbounds nuw %struct.RString, ptr %4, i32 0, i32 2
  %7 = getelementptr inbounds nuw %struct.anon.17, ptr %6, i32 0, i32 0
  %8 = load ptr, ptr %7, align 8, !tbaa !26
  store ptr %8, ptr %3, align 8, !tbaa !11
  %9 = load ptr, ptr %3, align 8, !tbaa !11
  call void @llvm.lifetime.end.p0(i64 8, ptr %3) #26
  ret ptr %9
}

; Function Attrs: nounwind sspstrong uwtable
define internal void @chdir_enter() #0 {
  %1 = load i32, ptr getelementptr inbounds nuw (%struct.anon, ptr @chdir_lock, i32 0, i32 3), align 4, !tbaa !186
  %2 = icmp eq i32 %1, 0
  br i1 %2, label %3, label %5

3:                                                ; preds = %0
  %4 = call i64 @rb_source_location(ptr noundef getelementptr inbounds nuw (%struct.anon, ptr @chdir_lock, i32 0, i32 2))
  store i64 %4, ptr getelementptr inbounds nuw (%struct.anon, ptr @chdir_lock, i32 0, i32 1), align 8, !tbaa !189
  br label %5

5:                                                ; preds = %3, %0
  %6 = load i32, ptr getelementptr inbounds nuw (%struct.anon, ptr @chdir_lock, i32 0, i32 3), align 4, !tbaa !186
  %7 = add i32 %6, 1
  store i32 %7, ptr getelementptr inbounds nuw (%struct.anon, ptr @chdir_lock, i32 0, i32 3), align 4, !tbaa !186
  %8 = load i64, ptr @chdir_lock, align 8, !tbaa !188
  %9 = call zeroext i1 @RB_NIL_P(i64 noundef %8) #31
  br i1 %9, label %10, label %12

10:                                               ; preds = %5
  %11 = call i64 @rb_thread_current()
  store i64 %11, ptr @chdir_lock, align 8, !tbaa !188
  br label %12

12:                                               ; preds = %10, %5
  ret void
}

; Function Attrs: nounwind sspstrong uwtable
define internal void @dir_chdir0(i64 noundef %0) #0 {
  %2 = alloca i64, align 8
  %3 = alloca i32, align 4
  store i64 %0, ptr %2, align 8, !tbaa !7
  %4 = load i64, ptr %2, align 8, !tbaa !7
  %5 = call ptr @RSTRING_PTR(i64 noundef %4)
  %6 = call ptr @rb_nogvl(ptr noundef @nogvl_chdir, ptr noundef %5, ptr noundef inttoptr (i64 -1 to ptr), ptr noundef null, i32 noundef 4)
  %7 = ptrtoint ptr %6 to i64
  %8 = trunc i64 %7 to i32
  %9 = icmp slt i32 %8, 0
  br i1 %9, label %10, label %17

10:                                               ; preds = %1
  br label %11

11:                                               ; preds = %10
  call void @llvm.lifetime.start.p0(i64 4, ptr %3) #26
  %12 = call ptr @rb_errno_ptr()
  %13 = load i32, ptr %12, align 4, !tbaa !21
  store i32 %13, ptr %3, align 4, !tbaa !21
  %14 = load i32, ptr %3, align 4, !tbaa !21
  %15 = load i64, ptr %2, align 8, !tbaa !7
  call void @rb_syserr_fail_path_in(ptr noundef @__func__.dir_chdir0, i32 noundef %14, i64 noundef %15) #30
  unreachable

16:                                               ; No predecessors!
  br label %17

17:                                               ; preds = %16, %1
  ret void
}

; Function Attrs: nounwind sspstrong uwtable
define internal i64 @chdir_yield(i64 noundef %0) #0 {
  %2 = alloca i64, align 8
  %3 = alloca ptr, align 8
  store i64 %0, ptr %2, align 8, !tbaa !7
  call void @llvm.lifetime.start.p0(i64 8, ptr %3) #26
  %4 = load i64, ptr %2, align 8, !tbaa !7
  %5 = inttoptr i64 %4 to ptr
  store ptr %5, ptr %3, align 8, !tbaa !199
  %6 = load ptr, ptr %3, align 8, !tbaa !199
  %7 = getelementptr inbounds nuw %struct.chdir_data, ptr %6, i32 0, i32 1
  %8 = load i64, ptr %7, align 8, !tbaa !196
  call void @dir_chdir0(i64 noundef %8)
  %9 = load ptr, ptr %3, align 8, !tbaa !199
  %10 = getelementptr inbounds nuw %struct.chdir_data, ptr %9, i32 0, i32 2
  store i32 1, ptr %10, align 8, !tbaa !197
  call void @chdir_enter()
  %11 = load ptr, ptr %3, align 8, !tbaa !199
  %12 = getelementptr inbounds nuw %struct.chdir_data, ptr %11, i32 0, i32 3
  %13 = load i8, ptr %12, align 4, !tbaa !198, !range !79, !noundef !80
  %14 = trunc i8 %13 to i1
  br i1 %14, label %15, label %20

15:                                               ; preds = %1
  %16 = load ptr, ptr %3, align 8, !tbaa !199
  %17 = getelementptr inbounds nuw %struct.chdir_data, ptr %16, i32 0, i32 1
  %18 = load i64, ptr %17, align 8, !tbaa !196
  %19 = call i64 @rb_yield(i64 noundef %18)
  br label %22

20:                                               ; preds = %1
  %21 = call i64 @rb_yield_values2(i32 noundef 0, ptr noundef null)
  br label %22

22:                                               ; preds = %20, %15
  %23 = phi i64 [ %19, %15 ], [ %21, %20 ]
  call void @llvm.lifetime.end.p0(i64 8, ptr %3) #26
  ret i64 %23
}