; Function Attrs: nounwind sspstrong uwtable
define internal i64 @chdir_yield(i64 noundef %0) #0 {
  %2 = inttoptr i64 %0 to ptr
  %3 = getelementptr inbounds nuw i8, ptr %2, i64 8
  %4 = load i64, ptr %3, align 8, !tbaa !79
  %5 = inttoptr i64 %4 to ptr
  %6 = load i64, ptr %5, align 8, !tbaa !61, !noalias !189
  %7 = and i64 %6, 8192
  %.not.i.i.i = icmp eq i64 %7, 0
  %8 = getelementptr inbounds nuw i8, ptr %5, i64 24
  br i1 %.not.i.i.i, label %RSTRING_PTR.exit.i, label %9

9:                                                ; preds = %1
  %.sroa.2.0.copyload.i.i = load ptr, ptr %8, align 8
  br label %RSTRING_PTR.exit.i

RSTRING_PTR.exit.i:                               ; preds = %9, %1
  %.sroa.2.0.i.i = phi ptr [ %.sroa.2.0.copyload.i.i, %9 ], [ %8, %1 ]
  %10 = tail call ptr @rb_nogvl(ptr noundef nonnull @nogvl_chdir, ptr noundef %.sroa.2.0.i.i, ptr noundef nonnull inttoptr (i64 -1 to ptr), ptr noundef null, i32 noundef 4) #22
  %11 = ptrtoint ptr %10 to i64
  %12 = and i64 %11, 2147483648
  %.not.i = icmp eq i64 %12, 0
  br i1 %.not.i, label %dir_chdir0.exit, label %13

13:                                               ; preds = %RSTRING_PTR.exit.i
  %14 = tail call ptr @rb_errno_ptr() #22
  %15 = load i32, ptr %14, align 4, !tbaa !58
  tail call void @rb_syserr_fail_path_in(ptr noundef nonnull @__func__.dir_chdir0, i32 noundef %15, i64 noundef %4) #26
  unreachable

dir_chdir0.exit:                                  ; preds = %RSTRING_PTR.exit.i
  %16 = getelementptr inbounds nuw i8, ptr %2, i64 16
  store i32 1, ptr %16, align 8, !tbaa !80
  %17 = load i32, ptr getelementptr inbounds nuw (i8, ptr @chdir_lock, i64 20), align 4, !tbaa !67
  %18 = icmp eq i32 %17, 0
  br i1 %18, label %19, label %21

19:                                               ; preds = %dir_chdir0.exit
  %20 = tail call i64 @rb_source_location(ptr noundef nonnull getelementptr inbounds nuw (i8, ptr @chdir_lock, i64 16)) #22
  store i64 %20, ptr getelementptr inbounds nuw (i8, ptr @chdir_lock, i64 8), align 8, !tbaa !70
  %.pre.i = load i32, ptr getelementptr inbounds nuw (i8, ptr @chdir_lock, i64 20), align 4, !tbaa !67
  br label %21

21:                                               ; preds = %19, %dir_chdir0.exit
  %22 = phi i32 [ %.pre.i, %19 ], [ %17, %dir_chdir0.exit ]
  %23 = add i32 %22, 1
  store i32 %23, ptr getelementptr inbounds nuw (i8, ptr @chdir_lock, i64 20), align 4, !tbaa !67
  %24 = load i64, ptr @chdir_lock, align 8, !tbaa !69
  %25 = icmp eq i64 %24, 4
  br i1 %25, label %26, label %chdir_enter.exit

26:                                               ; preds = %21
  %27 = tail call i64 @rb_thread_current() #22
  store i64 %27, ptr @chdir_lock, align 8, !tbaa !69
  br label %chdir_enter.exit

chdir_enter.exit:                                 ; preds = %21, %26
  %28 = getelementptr inbounds nuw i8, ptr %2, i64 20
  %29 = load i8, ptr %28, align 4, !tbaa !81, !range !192, !noundef !193
  %30 = trunc nuw i8 %29 to i1
  br i1 %30, label %31, label %34

31:                                               ; preds = %chdir_enter.exit
  %32 = load i64, ptr %3, align 8, !tbaa !79
  %33 = tail call i64 @rb_yield(i64 noundef %32) #22
  br label %36

34:                                               ; preds = %chdir_enter.exit
  %35 = tail call i64 @rb_yield_values2(i32 noundef 0, ptr noundef null) #22
  br label %36

36:                                               ; preds = %34, %31
  %37 = phi i64 [ %33, %31 ], [ %35, %34 ]
  ret i64 %37
}